target datalayout = "e-m:e-p270:32:32-p271:32:32-p272:64:64-i64:64-i128:128-f80:128-n8:16:32:64-S128"
target triple = "x86_64-pc-linux-gnu"

%"class.mbp::euf_project_plugin" = type { %"class.mbp::project_plugin", %class.obj_map, %class.obj_map.0 }
%"class.mbp::project_plugin" = type { ptr, ptr, %class.obj_mark, %class.ptr_vector, %class.obj_mark, %class.obj_mark, %class.ref_vector, %class.ref_vector, %class.ref_vector }
%class.ptr_vector = type { %class.vector }
%class.vector = type { ptr }
%class.obj_mark = type { [8 x i8], %class.bit_vector }
%class.bit_vector = type { i32, i32, ptr }
%class.ref_vector = type { %class.ref_vector_core }
%class.ref_vector_core = type { %class.ref_manager_wrapper, %class.ptr_vector }
%class.ref_manager_wrapper = type { ptr }
%class.obj_map = type { %class.core_hashtable }
%class.core_hashtable = type <{ ptr, i32, i32, i32, [4 x i8] }>
%class.obj_map.0 = type { %class.core_hashtable.1 }
%class.core_hashtable.1 = type <{ ptr, i32, i32, i32, [4 x i8] }>
%"struct.obj_map<expr, expr *>::key_data" = type { ptr, ptr }
%"struct.obj_map<expr, ptr_vector<expr>>::key_data" = type { ptr, %class.ptr_vector }
%"class.obj_map<expr, expr *>::obj_map_entry" = type { %"struct.obj_map<expr, expr *>::key_data" }
%"class.obj_map<expr, ptr_vector<expr>>::obj_map_entry" = type { %"struct.obj_map<expr, ptr_vector<expr>>::key_data" }

; Function Attrs: mustprogress uwtable
define linkonce_odr hidden void @_ZN6vectorIP4exprLb0EjE11free_memoryEv(ptr noundef nonnull align 8 dereferenceable(8) %0) #4 comdat align 2 {
  %2 = alloca ptr, align 8
  store ptr %0, ptr %2, align 8, !tbaa !113
  %3 = load ptr, ptr %2, align 8
  %4 = getelementptr inbounds nuw %class.vector, ptr %3, i32 0, i32 0
  %5 = load ptr, ptr %4, align 8, !tbaa !115
  %6 = getelementptr inbounds i32, ptr %5, i64 -2
  call void @_ZN6memory10deallocateEPv(ptr noundef %6)
  ret void
}

; Function Attrs: mustprogress uwtable
define linkonce_odr hidden void @_ZN6vectorIP4exprLb0EjE7destroyEv(ptr noundef nonnull align 8 dereferenceable(8) %0) #4 comdat align 2 {
  %2 = alloca ptr, align 8
  store ptr %0, ptr %2, align 8, !tbaa !113
  %3 = load ptr, ptr %2, align 8
  %4 = getelementptr inbounds nuw %class.vector, ptr %3, i32 0, i32 0
  %5 = load ptr, ptr %4, align 8, !tbaa !115
  %6 = icmp ne ptr %5, null
  br i1 %6, label %7, label %8

7:                                                ; preds = %1
  call void @_ZN6vectorIP4exprLb0EjE11free_memoryEv(ptr noundef nonnull align 8 dereferenceable(8) %3)
  br label %8

8:                                                ; preds = %7, %1
  ret void
}

; Function Attrs: mustprogress nounwind uwtable
define linkonce_odr hidden void @_ZN6vectorIP4exprLb0EjED2Ev(ptr noundef nonnull align 8 dereferenceable(8) %0) unnamed_addr #6 comdat align 2 personality ptr @__gxx_personality_v0 {
  %2 = alloca ptr, align 8
  store ptr %0, ptr %2, align 8, !tbaa !113
  %3 = load ptr, ptr %2, align 8
  invoke void @_ZN6vectorIP4exprLb0EjE7destroyEv(ptr noundef nonnull align 8 dereferenceable(8) %3)
          to label %4 unwind label %5

4:                                                ; preds = %1
  ret void

5:                                                ; preds = %1
  %6 = landingpad { ptr, i32 }
          catch ptr null
  %7 = extractvalue { ptr, i32 } %6, 0
  call void @__clang_call_terminate(ptr %7) #20
  unreachable
}

; Function Attrs: inlinehint mustprogress nounwind uwtable
define linkonce_odr hidden void @_ZN7obj_mapI4expr10ptr_vectorIS0_EE8key_dataD2Ev(ptr noundef nonnull align 8 dereferenceable(16) %0) unnamed_addr #5 comdat align 2 {
  %2 = alloca ptr, align 8
  store ptr %0, ptr %2, align 8, !tbaa !169
  %3 = load ptr, ptr %2, align 8
  %4 = getelementptr inbounds nuw %"struct.obj_map<expr, ptr_vector<expr>>::key_data", ptr %3, i32 0, i32 1
  call void @_ZN6vectorIP4exprLb0EjED2Ev(ptr noundef nonnull align 8 dereferenceable(8) %4) #3
  ret void
}

; Function Attrs: inlinehint mustprogress nounwind uwtable
define linkonce_odr hidden void @_ZN7obj_mapI4expr10ptr_vectorIS0_EE13obj_map_entryD2Ev(ptr noundef nonnull align 8 dereferenceable(16) %0) unnamed_addr #5 comdat align 2 {
  %2 = alloca ptr, align 8
  store ptr %0, ptr %2, align 8, !tbaa !167
  %3 = load ptr, ptr %2, align 8
  %4 = getelementptr inbounds nuw %"class.obj_map<expr, ptr_vector<expr>>::obj_map_entry", ptr %3, i32 0, i32 0
  call void @_ZN7obj_mapI4expr10ptr_vectorIS0_EE8key_dataD2Ev(ptr noundef nonnull align 8 dereferenceable(16) %4) #3
  ret void
}

; Function Attrs: inlinehint mustprogress nounwind uwtable
define linkonce_odr hidden void @_ZSt9__advanceIPN7obj_mapI4exprPS1_E13obj_map_entryElEvRT_T0_St26random_access_iterator_tag(ptr noundef nonnull align 8 dereferenceable(8) %0, i64 noundef %1) #5 comdat {
  %3 = alloca ptr, align 8
  %4 = alloca i64, align 8
  store ptr %0, ptr %3, align 8, !tbaa !157
  store i64 %1, ptr %4, align 8, !tbaa !159
  %5 = load i64, ptr %4, align 8, !tbaa !159
  %6 = call i1 @llvm.is.constant.i64(i64 %5)
  br i1 %6, label %7, label %14

7:                                                ; preds = %2
  %8 = load i64, ptr %4, align 8, !tbaa !159
  %9 = icmp eq i64 %8, 1
  br i1 %9, label %10, label %14

10:                                               ; preds = %7
  %11 = load ptr, ptr %3, align 8, !tbaa !157
  %12 = load ptr, ptr %11, align 8, !tbaa !143
  %13 = getelementptr inbounds nuw %"class.obj_map<expr, expr *>::obj_map_entry", ptr %12, i32 1
  store ptr %13, ptr %11, align 8, !tbaa !143
  br label %30

14:                                               ; preds = %7, %2
  %15 = load i64, ptr %4, align 8, !tbaa !159
  %16 = call i1 @llvm.is.constant.i64(i64 %15)
  br i1 %16, label %17, label %24

17:                                               ; preds = %14
  %18 = load i64, ptr %4, align 8, !tbaa !159
  %19 = icmp eq i64 %18, -1
  br i1 %19, label %20, label %24

20:                                               ; preds = %17
  %21 = load ptr, ptr %3, align 8, !tbaa !157
  %22 = load ptr, ptr %21, align 8, !tbaa !143
  %23 = getelementptr inbounds %"class.obj_map<expr, expr *>::obj_map_entry", ptr %22, i32 -1
  store ptr %23, ptr %21, align 8, !tbaa !143
  br label %29

24:                                               ; preds = %17, %14
  %25 = load i64, ptr %4, align 8, !tbaa !159
  %26 = load ptr, ptr %3, align 8, !tbaa !157
  %27 = load ptr, ptr %26, align 8, !tbaa !143
  %28 = getelementptr inbounds %"class.obj_map<expr, expr *>::obj_map_entry", ptr %27, i64 %25
  store ptr %28, ptr %26, align 8, !tbaa !143
  br label %29

29:                                               ; preds = %24, %20
  br label %30

30:                                               ; preds = %29, %10
  ret void
}

; Function Attrs: inlinehint mustprogress nounwind uwtable
define linkonce_odr hidden void @_ZSt19__iterator_categoryIPN7obj_mapI4exprPS1_E13obj_map_entryEENSt15iterator_traitsIT_E17iterator_categoryERKS7_(ptr noundef nonnull align 8 dereferenceable(8) %0) #5 comdat {
  %2 = alloca ptr, align 8
  store ptr %0, ptr %2, align 8, !tbaa !157
  ret void
}

; Function Attrs: inlinehint mustprogress nounwind uwtable
define linkonce_odr hidden void @_ZSt10destroy_atIN7obj_mapI4expr10ptr_vectorIS1_EE13obj_map_entryEEvPT_(ptr noundef %0) #5 comdat {
  %2 = alloca ptr, align 8
  store ptr %0, ptr %2, align 8, !tbaa !167
  %3 = load ptr, ptr %2, align 8, !tbaa !167
  call void @_ZN7obj_mapI4expr10ptr_vectorIS0_EE13obj_map_entryD2Ev(ptr noundef nonnull align 8 dereferenceable(16) %3) #3
  ret void
}

; Function Attrs: inlinehint mustprogress uwtable
define linkonce_odr hidden void @_ZSt7advanceIPN7obj_mapI4exprPS1_E13obj_map_entryEjEvRT_T0_(ptr noundef nonnull align 8 dereferenceable(8) %0, i32 noundef %1) #9 comdat {
  %3 = alloca ptr, align 8
  %4 = alloca i32, align 4
  %5 = alloca i64, align 8
  store ptr %0, ptr %3, align 8, !tbaa !157
  store i32 %1, ptr %4, align 4, !tbaa !62
  call void @llvm.lifetime.start.p0(i64 8, ptr %5) #3
  %6 = load i32, ptr %4, align 4, !tbaa !62
  %7 = zext i32 %6 to i64
  store i64 %7, ptr %5, align 8, !tbaa !159
  %8 = load ptr, ptr %3, align 8, !tbaa !157
  %9 = load i64, ptr %5, align 8, !tbaa !159
  %10 = load ptr, ptr %3, align 8, !tbaa !157
  call void @_ZSt19__iterator_categoryIPN7obj_mapI4exprPS1_E13obj_map_entryEENSt15iterator_traitsIT_E17iterator_categoryERKS7_(ptr noundef nonnull align 8 dereferenceable(8) %10)
  call void @_ZSt9__advanceIPN7obj_mapI4exprPS1_E13obj_map_entryElEvRT_T0_St26random_access_iterator_tag(ptr noundef nonnull align 8 dereferenceable(8) %8, i64 noundef %9)
  call void @llvm.lifetime.end.p0(i64 8, ptr %5) #3
  ret void
}

; Function Attrs: inlinehint mustprogress uwtable
define linkonce_odr hidden void @_ZSt8_DestroyIN7obj_mapI4expr10ptr_vectorIS1_EE13obj_map_entryEEvPT_(ptr noundef %0) #9 comdat {
  %2 = alloca ptr, align 8
  store ptr %0, ptr %2, align 8, !tbaa !167
  %3 = load ptr, ptr %2, align 8, !tbaa !167
  call void @_ZSt10destroy_atIN7obj_mapI4expr10ptr_vectorIS1_EE13obj_map_entryEEvPT_(ptr noundef %3)
  ret void
}

; Function Attrs: mustprogress uwtable
define linkonce_odr hidden noundef ptr @_ZNSt14_Destroy_n_auxILb1EE11__destroy_nIPN7obj_mapI4exprPS3_E13obj_map_entryEjEET_S8_T0_(ptr noundef %0, i32 noundef %1) #4 comdat align 2 {
  %3 = alloca ptr, align 8
  %4 = alloca i32, align 4
  store ptr %0, ptr %3, align 8, !tbaa !143
  store i32 %1, ptr %4, align 4, !tbaa !62
  %5 = load i32, ptr %4, align 4, !tbaa !62
  call void @_ZSt7advanceIPN7obj_mapI4exprPS1_E13obj_map_entryEjEvRT_T0_(ptr noundef nonnull align 8 dereferenceable(8) %3, i32 noundef %5)
  %6 = load ptr, ptr %3, align 8, !tbaa !143
  ret ptr %6
}

; Function Attrs: mustprogress uwtable
define linkonce_odr hidden noundef ptr @_ZNSt14_Destroy_n_auxILb0EE11__destroy_nIPN7obj_mapI4expr10ptr_vectorIS3_EE13obj_map_entryEjEET_S9_T0_(ptr noundef %0, i32 noundef %1) #4 comdat align 2 {
  %3 = alloca ptr, align 8
  %4 = alloca i32, align 4
  store ptr %0, ptr %3, align 8, !tbaa !167
  store i32 %1, ptr %4, align 4, !tbaa !62
  br label %5

5:                                                ; preds = %10, %2
  %6 = load i32, ptr %4, align 4, !tbaa !62
  %7 = icmp ugt i32 %6, 0
  br i1 %7, label %8, label %15

8:                                                ; preds = %5
  %9 = load ptr, ptr %3, align 8, !tbaa !167
  call void @_ZSt8_DestroyIN7obj_mapI4expr10ptr_vectorIS1_EE13obj_map_entryEEvPT_(ptr noundef %9)
  br label %10

10:                                               ; preds = %8
  %11 = load ptr, ptr %3, align 8, !tbaa !167
  %12 = getelementptr inbounds nuw %"class.obj_map<expr, ptr_vector<expr>>::obj_map_entry", ptr %11, i32 1
  store ptr %12, ptr %3, align 8, !tbaa !167
  %13 = load i32, ptr %4, align 4, !tbaa !62
  %14 = add i32 %13, -1
  store i32 %14, ptr %4, align 4, !tbaa !62
  br label %5, !llvm.loop !168

15:                                               ; preds = %5
  %16 = load ptr, ptr %3, align 8, !tbaa !167
  ret ptr %16
}

; Function Attrs: inlinehint mustprogress uwtable
define linkonce_odr hidden noundef ptr @_ZSt10_Destroy_nIPN7obj_mapI4exprPS1_E13obj_map_entryEjET_S6_T0_(ptr noundef %0, i32 noundef %1) #9 comdat {
  %3 = alloca ptr, align 8
  %4 = alloca i32, align 4
  store ptr %0, ptr %3, align 8, !tbaa !143
  store i32 %1, ptr %4, align 4, !tbaa !62
  %5 = load ptr, ptr %3, align 8, !tbaa !143
  %6 = load i32, ptr %4, align 4, !tbaa !62
  %7 = call noundef ptr @_ZNSt14_Destroy_n_auxILb1EE11__destroy_nIPN7obj_mapI4exprPS3_E13obj_map_entryEjEET_S8_T0_(ptr noundef %5, i32 noundef %6)
  ret ptr %7
}

; Function Attrs: inlinehint mustprogress uwtable
define linkonce_odr hidden noundef ptr @_ZSt10_Destroy_nIPN7obj_mapI4expr10ptr_vectorIS1_EE13obj_map_entryEjET_S7_T0_(ptr noundef %0, i32 noundef %1) #9 comdat {
  %3 = alloca ptr, align 8
  %4 = alloca i32, align 4
  store ptr %0, ptr %3, align 8, !tbaa !167
  store i32 %1, ptr %4, align 4, !tbaa !62
  %5 = load ptr, ptr %3, align 8, !tbaa !167
  %6 = load i32, ptr %4, align 4, !tbaa !62
  %7 = call noundef ptr @_ZNSt14_Destroy_n_auxILb0EE11__destroy_nIPN7obj_mapI4expr10ptr_vectorIS3_EE13obj_map_entryEjEET_S9_T0_(ptr noundef %5, i32 noundef %6)
  ret ptr %7
}

; Function Attrs: inlinehint mustprogress uwtable
define linkonce_odr hidden noundef ptr @_ZSt9destroy_nIPN7obj_mapI4exprPS1_E13obj_map_entryEjET_S6_T0_(ptr noundef %0, i32 noundef %1) #9 comdat {
  %3 = alloca ptr, align 8
  %4 = alloca i32, align 4
  store ptr %0, ptr %3, align 8, !tbaa !143
  store i32 %1, ptr %4, align 4, !tbaa !62
  %5 = load ptr, ptr %3, align 8, !tbaa !143
  %6 = load i32, ptr %4, align 4, !tbaa !62
  %7 = call noundef ptr @_ZSt10_Destroy_nIPN7obj_mapI4exprPS1_E13obj_map_entryEjET_S6_T0_(ptr noundef %5, i32 noundef %6)
  ret ptr %7
}

; Function Attrs: inlinehint mustprogress uwtable
define linkonce_odr hidden noundef ptr @_ZSt9destroy_nIPN7obj_mapI4expr10ptr_vectorIS1_EE13obj_map_entryEjET_S7_T0_(ptr noundef %0, i32 noundef %1) #9 comdat {
  %3 = alloca ptr, align 8
  %4 = alloca i32, align 4
  store ptr %0, ptr %3, align 8, !tbaa !167
  store i32 %1, ptr %4, align 4, !tbaa !62
  %5 = load ptr, ptr %3, align 8, !tbaa !167
  %6 = load i32, ptr %4, align 4, !tbaa !62
  %7 = call noundef ptr @_ZSt10_Destroy_nIPN7obj_mapI4expr10ptr_vectorIS1_EE13obj_map_entryEjET_S7_T0_(ptr noundef %5, i32 noundef %6)
  ret ptr %7
}

; Function Attrs: mustprogress uwtable
define linkonce_odr hidden void @_Z12dealloc_vectIN7obj_mapI4exprPS1_E13obj_map_entryEEvPT_j(ptr noundef %0, i32 noundef %1) #4 comdat {
  %3 = alloca ptr, align 8
  %4 = alloca i32, align 4
  store ptr %0, ptr %3, align 8, !tbaa !143
  store i32 %1, ptr %4, align 4, !tbaa !62
  %5 = load ptr, ptr %3, align 8, !tbaa !143
  %6 = icmp eq ptr %5, null
  br i1 %6, label %7, label %8

7:                                                ; preds = %2
  br label %13

8:                                                ; preds = %2
  %9 = load ptr, ptr %3, align 8, !tbaa !143
  %10 = load i32, ptr %4, align 4, !tbaa !62
  %11 = call noundef ptr @_ZSt9destroy_nIPN7obj_mapI4exprPS1_E13obj_map_entryEjET_S6_T0_(ptr noundef %9, i32 noundef %10)
  %12 = load ptr, ptr %3, align 8, !tbaa !143
  call void @_ZN6memory10deallocateEPv(ptr noundef %12)
  br label %13

13:                                               ; preds = %8, %7
  ret void
}

; Function Attrs: mustprogress uwtable
define linkonce_odr hidden void @_Z12dealloc_vectIN7obj_mapI4expr10ptr_vectorIS1_EE13obj_map_entryEEvPT_j(ptr noundef %0, i32 noundef %1) #4 comdat {
  %3 = alloca ptr, align 8
  %4 = alloca i32, align 4
  store ptr %0, ptr %3, align 8, !tbaa !167
  store i32 %1, ptr %4, align 4, !tbaa !62
  %5 = load ptr, ptr %3, align 8, !tbaa !167
  %6 = icmp eq ptr %5, null
  br i1 %6, label %7, label %8

7:                                                ; preds = %2
  br label %13

8:                                                ; preds = %2
  %9 = load ptr, ptr %3, align 8, !tbaa !167
  %10 = load i32, ptr %4, align 4, !tbaa !62
  %11 = call noundef ptr @_ZSt9destroy_nIPN7obj_mapI4expr10ptr_vectorIS1_EE13obj_map_entryEjET_S7_T0_(ptr noundef %9, i32 noundef %10)
  %12 = load ptr, ptr %3, align 8, !tbaa !167
  call void @_ZN6memory10deallocateEPv(ptr noundef %12)
  br label %13

13:                                               ; preds = %8, %7
  ret void
}

; Function Attrs: mustprogress uwtable
define linkonce_odr hidden void @_ZN14core_hashtableIN7obj_mapI4exprPS1_E13obj_map_entryE8obj_hashINS3_8key_dataEE10default_eqIS6_EE12delete_tableEv(ptr noundef nonnull align 8 dereferenceable(20) %0) #4 comdat align 2 {
  %2 = alloca ptr, align 8
  store ptr %0, ptr %2, align 8, !tbaa !152
  %3 = load ptr, ptr %2, align 8
  %4 = getelementptr inbounds nuw %class.core_hashtable, ptr %3, i32 0, i32 0
  %5 = load ptr, ptr %4, align 8, !tbaa !154
  %6 = getelementptr inbounds nuw %class.core_hashtable, ptr %3, i32 0, i32 1
  %7 = load i32, ptr %6, align 8, !tbaa !156
  call void @_Z12dealloc_vectIN7obj_mapI4exprPS1_E13obj_map_entryEEvPT_j(ptr noundef %5, i32 noundef %7)
  %8 = getelementptr inbounds nuw %class.core_hashtable, ptr %3, i32 0, i32 0
  store ptr null, ptr %8, align 8, !tbaa !154
  ret void
}

; Function Attrs: mustprogress uwtable
define linkonce_odr hidden void @_ZN14core_hashtableIN7obj_mapI4expr10ptr_vectorIS1_EE13obj_map_entryE8obj_hashINS4_8key_dataEE10default_eqIS7_EE12delete_tableEv(ptr noundef nonnull align 8 dereferenceable(20) %0) #4 comdat align 2 {
  %2 = alloca ptr, align 8
  store ptr %0, ptr %2, align 8, !tbaa !161
  %3 = load ptr, ptr %2, align 8
  %4 = getelementptr inbounds nuw %class.core_hashtable.1, ptr %3, i32 0, i32 0
  %5 = load ptr, ptr %4, align 8, !tbaa !163
  %6 = getelementptr inbounds nuw %class.core_hashtable.1, ptr %3, i32 0, i32 1
  %7 = load i32, ptr %6, align 8, !tbaa !166
  call void @_Z12dealloc_vectIN7obj_mapI4expr10ptr_vectorIS1_EE13obj_map_entryEEvPT_j(ptr noundef %5, i32 noundef %7)
  %8 = getelementptr inbounds nuw %class.core_hashtable.1, ptr %3, i32 0, i32 0
  store ptr null, ptr %8, align 8, !tbaa !163
  ret void
}

; Function Attrs: mustprogress nounwind uwtable
define linkonce_odr hidden void @_ZN14core_hashtableIN7obj_mapI4exprPS1_E13obj_map_entryE8obj_hashINS3_8key_dataEE10default_eqIS6_EED2Ev(ptr noundef nonnull align 8 dereferenceable(20) %0) unnamed_addr #6 comdat align 2 personality ptr @__gxx_personality_v0 {
  %2 = alloca ptr, align 8
  store ptr %0, ptr %2, align 8, !tbaa !152
  %3 = load ptr, ptr %2, align 8
  invoke void @_ZN14core_hashtableIN7obj_mapI4exprPS1_E13obj_map_entryE8obj_hashINS3_8key_dataEE10default_eqIS6_EE12delete_tableEv(ptr noundef nonnull align 8 dereferenceable(20) %3)
          to label %4 unwind label %5

4:                                                ; preds = %1
  ret void

5:                                                ; preds = %1
  %6 = landingpad { ptr, i32 }
          catch ptr null
  %7 = extractvalue { ptr, i32 } %6, 0
  call void @__clang_call_terminate(ptr %7) #20
  unreachable
}

; Function Attrs: mustprogress nounwind uwtable
define linkonce_odr hidden void @_ZN14core_hashtableIN7obj_mapI4expr10ptr_vectorIS1_EE13obj_map_entryE8obj_hashINS4_8key_dataEE10default_eqIS7_EED2Ev(ptr noundef nonnull align 8 dereferenceable(20) %0) unnamed_addr #6 comdat align 2 personality ptr @__gxx_personality_v0 {
  %2 = alloca ptr, align 8
  store ptr %0, ptr %2, align 8, !tbaa !161
  %3 = load ptr, ptr %2, align 8
  invoke void @_ZN14core_hashtableIN7obj_mapI4expr10ptr_vectorIS1_EE13obj_map_entryE8obj_hashINS4_8key_dataEE10default_eqIS7_EE12delete_tableEv(ptr noundef nonnull align 8 dereferenceable(20) %3)
          to label %4 unwind label %5

4:                                                ; preds = %1
  ret void

5:                                                ; preds = %1
  %6 = landingpad { ptr, i32 }
          catch ptr null
  %7 = extractvalue { ptr, i32 } %6, 0
  call void @__clang_call_terminate(ptr %7) #20
  unreachable
}

; Function Attrs: inlinehint mustprogress nounwind uwtable
define linkonce_odr hidden void @_ZN7obj_mapI4exprPS0_ED2Ev(ptr noundef nonnull align 8 dereferenceable(24) %0) unnamed_addr #5 comdat align 2 {
  %2 = alloca ptr, align 8
  store ptr %0, ptr %2, align 8, !tbaa !14
  %3 = load ptr, ptr %2, align 8
  %4 = getelementptr inbounds nuw %class.obj_map, ptr %3, i32 0, i32 0
  call void @_ZN14core_hashtableIN7obj_mapI4exprPS1_E13obj_map_entryE8obj_hashINS3_8key_dataEE10default_eqIS6_EED2Ev(ptr noundef nonnull align 8 dereferenceable(20) %4) #3
  ret void
}

; Function Attrs: inlinehint mustprogress nounwind uwtable
define linkonce_odr hidden void @_ZN7obj_mapI4expr10ptr_vectorIS0_EED2Ev(ptr noundef nonnull align 8 dereferenceable(24) %0) unnamed_addr #5 comdat align 2 {
  %2 = alloca ptr, align 8
  store ptr %0, ptr %2, align 8, !tbaa !16
  %3 = load ptr, ptr %2, align 8
  %4 = getelementptr inbounds nuw %class.obj_map.0, ptr %3, i32 0, i32 0
  call void @_ZN14core_hashtableIN7obj_mapI4expr10ptr_vectorIS1_EE13obj_map_entryE8obj_hashINS4_8key_dataEE10default_eqIS7_EED2Ev(ptr noundef nonnull align 8 dereferenceable(20) %4) #3
  ret void
}

; Function Attrs: mustprogress nounwind uwtable
define hidden void @_ZN3mbp18euf_project_pluginD2Ev(ptr noundef nonnull align 8 dereferenceable(192) %0) unnamed_addr #6 align 2 {
  %2 = alloca ptr, align 8
  store ptr %0, ptr %2, align 8, !tbaa !3
  %3 = load ptr, ptr %2, align 8
  store ptr getelementptr inbounds inrange(-16, 64) ({ [10 x ptr] }, ptr @_ZTVN3mbp18euf_project_pluginE, i32 0, i32 0, i32 2), ptr %3, align 8, !tbaa !10
  %4 = getelementptr inbounds nuw %"class.mbp::euf_project_plugin", ptr %3, i32 0, i32 2
  call void @_ZN7obj_mapI4expr10ptr_vectorIS0_EED2Ev(ptr noundef nonnull align 8 dereferenceable(24) %4) #3
  %5 = getelementptr inbounds nuw %"class.mbp::euf_project_plugin", ptr %3, i32 0, i32 1
  call void @_ZN7obj_mapI4exprPS0_ED2Ev(ptr noundef nonnull align 8 dereferenceable(24) %5) #3
  call void @_ZN3mbp14project_pluginD2Ev(ptr noundef nonnull align 8 dereferenceable(144) %3) #3
  ret void
}